(dp1
I24580
S'Lock_(computer_science)'
p2
sI47129
S'Volume_rendering'
p3
sI18459
S'Graphical_model'
p4
sI24606
S'Logic'
p5
sI18500
S'Graph_(mathematics)'
p6
sI16454
S'File_system'
p7
sI47176
S'Vulnerability_(computing)'
p8
sI6217
S'Cloud_computing'
p9
sI28748
S'Nonlinear_system'
p10
sI36942
S'Robot'
p11
sI34896
S'Quantum_computer'
p12
sI34898
S'Quantum_cryptography'
p13
sI34907
S'Quantum_mechanics'
p14
sI6239
S'Cluster_analysis'
p15
sI24695
S'Logic_programming'
p16
sI36989
S'Robotics'
p17
sI26757
S'ML_(programming_language)'
p18
sI47238
S'Wavelet'
p19
sI24715
S'Very_long_instruction_word'
p20
sI8333
S'Concurrency_control'
p21
sI26774
S'Mobile_device'
p22
sI34969
S'Query_language'
p23
sI30887
S'Perl'
p24
sI28840
S'NP-complete'
p25
sI34985
S'Query_optimization'
p26
sI8364
S'Concurrency_(computer_science)'
p27
sI42014
S'Symmetric_multiprocessing'
p28
sI35007
S'Question_answering'
p29
sI16580
S'Finite_difference'
p30
sI47305
S'Web_browser'
p31
sI16587
S'Finite_element_method'
p32
sI16595
S'Finite-state_machine'
p33
sI30933
S'Personal_computer'
p34
sI8408
S'Conditional_probability'
p35
sI26842
S'Model_checking'
p36
sI22752
S'Java_(programming_language)'
p37
sI47342
S'Web_search_engine'
p38
sI16623
S'Fixed_point_(mathematics)'
p39
sI28914
S'Numerical_analysis'
p40
sI47349
S'Web_server'
p41
sI22774
S'JavaScript'
p42
sI47353
S'Web_service'
p43
sI24833
S'Machine_learning'
p44
sI259
S'3D_modeling'
p45
sI35081
S'Random_graph'
p46
sI20746
S'Index_(database)'
p47
sI16652
S'Floating_point'
p48
sI18704
S'Halting_problem'
p49
sI8466
S'Congestion_control'
p50
sI2331
S'Analysis_of_algorithms'
p51
sI37148
S'Round-off_error'
p52
sI35104
S'Random_walk'
p53
sI35109
S'Randomization'
p54
sI24872
S'Machine_translation'
p55
sI37162
S'Routing'
p56
sI35127
S'Randomized_algorithm'
p57
sI10564
S'Data_(computing)'
p58
sI35146
S'Randomness'
p59
sI21820
S'Internet'
p60
sI29007
S'Object-oriented_programming'
p61
sI45394
S'Turing_machine'
p62
sI10581
S'Data_analysis'
p63
sI37225
S'Run_time_(program_lifecycle_phase)'
p64
sI29038
S'Object_(computer_science)'
p65
sI42089
S'Syntax'
p66
sI20857
S'Inequality_(mathematics)'
p67
sI6527
S'Combinatorics'
p68
sI20868
S'Inference'
p69
sI45449
S'Type_system'
p70
sI22930
S'Kinematics'
p71
sI4511
S'Bayesian'
p72
sI4519
S'Bayesian_network'
p73
sI39336
S'Social_network'
p74
sI35231
S'Ray_tracing_(graphics)'
p75
sI18886
S'Hash_table'
p76
sI12743
S'Differential_equation'
p77
sI23629
S'Lazy_evaluation'
p78
sI468
S'Abstract_data_type'
p79
sI22997
S'Knowledge_representation_and_reasoning'
p80
sI20951
S'Information_assurance'
p81
sI18911
S'Haskell_(programming_language)'
p82
sI27109
S'Model_of_computation'
p83
sI39403
S'Software_design'
p84
sI37357
S'Scalability'
p85
sI6640
S'Communication'
p86
sI39418
S'Software_development'
p87
sI45580
S'Uncertainty'
p88
sI2577
S'Application_programming_interface'
p89
sI531
S'Abstraction_(computer_science)'
p90
sI39445
S'Software_engineering'
p91
sI4631
S'Big_data'
p92
sI33307
S'Profiling_(computer_programming)'
p93
sI16928
S'Formal_language'
p94
sI33314
S'Program_analysis'
p95
sI21028
S'Information_security'
p96
sI25125
S'Malware'
p97
sI43558
S'Tensor'
p98
sI16936
S'Formal_methods'
p99
sI12842
S'Digital_signature'
p100
sI10796
S'Data_structure'
p101
sI35381
S'Reason'
p102
sI39478
S'Software_framework'
p103
sI6713
S'Communications_protocol'
p104
sI16964
S'Formal_verification'
p105
sI4679
S'Bioinformatics'
p106
sI29260
S'Operating_system'
p107
sI21071
S'Inheritance_(object-oriented_programming)'
p108
sI47711
S'World_Wide_Web'
p109
sI19040
S'Hidden_Markov_model'
p110
sI33381
S'Programmer'
p111
sI14954
S'Entropy'
p112
sI10864
S'Data_type'
p113
sI8823
S'Context-free_grammar'
p114
sI8824
S'Context-free_language'
p115
sI37499
S'Scheduling_(computing)'
p116
sI35946
S'Relational_algebra'
p117
sI10887
S'Data_warehouse'
p118
sI21128
S'Input/output'
p119
sI10900
S'Database'
p120
sI10915
S'Database_design'
p121
sI10935
S'Database_management_system'
p122
sI10938
S'Database_normalization'
p123
sI19138
S'Higher-order_function'
p124
sI17096
S'Foundations_of_mathematics'
p125
sI17122
S'Fourier_analysis'
p126
sI35557
S'Recommender_system'
p127
sI21225
S'Instruction_set'
p128
sI13034
S'Discrete_mathematics'
p129
sI6903
S'Compiler'
p130
sI10709
S'Data_mining'
p131
sI25346
S'MapReduce'
p132
sI41736
S'Sufficient_statistic'
p133
sI37676
S'Scientific_modelling'
p134
sI11018
S'Database_system'
p135
sI27410
S'Modular_programming'
p136
sI25368
S'Markov_chain'
p137
sI7300
S'Computability'
p138
sI19238
S'HTML'
p139
sI21287
S'Integer'
p140
sI35628
S'Recurrence_relation'
p141
sI25394
S'Markov_process'
p142
sI11059
S'Deadlock'
p143
sI35638
S'Recursion'
p144
sI21304
S'Integral'
p145
sI43834
S'Theoretical_computer_science'
p146
sI33595
S'Programming_language'
p147
sI25404
S'Martingale_(probability_theory)'
p148
sI41789
S'Superscalar'
p149
sI45895
S'Unix'
p150
sI4938
S'Boundary_value_problem'
p151
sI19277
S'Human-computer_interaction'
p152
sI11100
S'Debugging'
p153
sI31584
S'Polymorphism_(computer_science)'
p154
sI45922
S'Unsupervised_learning'
p155
sI31587
S'Polynomial'
p156
sI35686
S'Recursion_(computer_science)'
p157
sI35690
S'Recursively_enumerable_set'
p158
sI41848
S'Support_vector_machine'
p159
sI27513
S'Monad_(functional_programming)'
p160
sI7318
S'Computation'
p161
sI37766
S'Scientific_visualization'
p162
sI43915
S'Theory_of_computation'
p163
sI27541
S'Monte_Carlo_method'
p164
sI19352
S'hypothesis_testing'
p165
sI11164
S'Decision_theory'
p166
sI12101
S'Design_of_experiments'
p167
sI33703
S'Programming_paradigm'
p168
sI37805
S'Scripting_language'
p169
sI15281
S'Estimation_theory'
p170
sI13235
S'Distributed_algorithms'
p171
sI23476
S'Large_deviations_theory'
p172
sI13244
S'Distributed_computing'
p173
sI7104
S'Complexity'
p174
sI27587
S'Motion_capture'
p175
sI17354
S'Functional_programming'
p176
sI27608
S'Motion_planning'
p177
sI3043
S'Approximation'
p178
sI3044
S'Approximation_algorithm'
p179
sI28839
S'NP_(complexity)'
p180
sI35831
S'Regular_expression'
p181
sI25592
S'Mathematical_model'
p182
sI35834
S'Regular_language'
p183
sI41987
S'Symbol_table'
p184
sI25605
S'Mathematical_proof'
p185
sI29705
S'Ordinary_differential_equation'
p186
sI33803
S'Programming_style'
p187
sI21518
S'Inter-process_communication'
p188
sI35868
S'Reinforcement_learning'
p189
sI21534
S'Interaction_design'
p190
sI25633
S'Mathematics'
p191
sI39974
S'Spanning_tree'
p192
sI42025
S'Synchronization'
p193
sI13364
S'Divide_and_conquer_algorithm'
p194
sI39991
S'Sparse_matrix'
p195
sI25659
S'MATLAB'
p196
sI8373
S'Concurrent_computing'
p197
sI37962
S'Security'
p198
sI25677
S'Matrix_(mathematics)'
p199
sI11352
S'Denotational_semantics'
p200
sI13403
S'Document_classification'
p201
sI5216
S'Cache_coherence'
p202
sI19560
S'Image'
p203
sI19561
S'Image_analysis'
p204
sI46186
S'User_interface'
p205
sI46188
S'User_interface_design'
p206
sI35954
S'Relational_database'
p207
sI34665
S'PSPACE'
p208
sI35972
S'Relational_model'
p209
sI19594
S'Image_processing'
p210
sI21643
S'Interactivity'
p211
sI5270
S'Calculus'
p212
sI38770
S'Shared_memory'
p213
sI44217
S'Time_complexity'
p214
sI27835
S'Multiplication'
p215
sI1219
S'Algebra'
p216
sI31940
S'Predicate_logic'
p217
sI31955
S'Prediction'
p218
sI45604
S'Undecidable_problem'
p219
sI29919
S'OSI_model'
p220
sI25829
S'Mechanical_engineering'
p221
sI40169
S'Speech_recognition'
p222
sI22741
S'Iterative_method'
p223
sI1288
S'Algorithm'
p224
sI21772
S'Interface_(computing)'
p225
sI1296
S'Algorithm_design'
p226
sI7442
S'Computational_complexity_theory'
p227
sI28890
S'Number_theory'
p228
sI16602
S'Firewall_(computing)'
p229
sI19742
S'Imperative_programming'
p230
sI17695
S'Game_theory'
p231
sI7456
S'Computational_geometry'
p232
sI3974
S'Automated_theorem_proving'
p233
sI13607
S'Dynamic_memory_allocation'
p234
sI27949
S'Mutual_exclusion'
p235
sI36142
S'Rendering_(computer_graphics)'
p236
sI8072
S'Computational_problem'
p237
sI3380
S'Arithmetic'
p238
sI7477
S'Computational_learning_theory'
p239
sI3388
S'Arithmetic_logic_unit'
p240
sI21049
S'Information_theory'
p241
sI40264
S'SQL'
p242
sI7615
S'Computer_animation'
p243
sI17751
S'Garbage_collection_(computer_science)'
p244
sI21848
S'Internet_Protocol_Suite'
p245
sI30061
S'Packet_switching'
p246
sI7535
S'Computational_science'
p247
sI21897
S'Interpolation'
p248
sI38285
S'Semantics'
p249
sI28053
S'Natural_language'
p250
sI28058
S'Natural_language_processing'
p251
sI34208
S'Prolog'
p252
sI38306
S'Semantics_of_programming_languages'
p253
sI3495
S'Artificial_intelligence'
p254
sI7596
S'Computer'
p255
sI26041
S'Memory_hierarchy'
p256
sI37791
S'Scope_(computer_science)'
p257
sI6389
S'Coding_theory'
p258
sI26052
S'Memory_management'
p259
sI7623
S'Computer_architecture'
p260
sI44962
S'Transaction_processing'
p261
sI15830
S'Expert_system'
p262
sI38379
S'Semidefinite_programming'
p263
sI7677
S'Computer_graphics'
p264
sI3586
S'Assembly_language'
p265
sI30215
S'Parallel_algorithm'
p266
sI17929
S'Generic_programming'
p267
sI17940
S'Genetic_algorithm'
p268
sI26135
S'Message_passing'
p269
sI24091
S'Lexical_analysis'
p270
sI24096
S'Lexical_semantics'
p271
sI30244
S'Parallel_computing'
p272
sI46635
S'Variable_(computer_science)'
p273
sI15929
S'Exponential_family'
p274
sI40507
S'Statistical_inference'
p275
sI46659
S'Vector_processor'
p276
sI7749
S'Computer_network'
p277
sI38484
S'Sentiment_analysis'
p278
sI40535
S'Statistics'
p279
sI11864
S'Design_pattern_(computer_science)'
p280
sI38501
S'Sequence_alignment'
p281
sI7786
S'Computer_programming'
p282
sI18032
S'Geometric_modeling'
p283
sI22129
S'Introduction_to_Algorithms'
p284
sI7796
S'Computer_science'
p285
sI28280
S'Network_security'
p286
sI42622
S'System_programming'
p287
sI13956
S'Eigenvalues_and_eigenvectors'
p288
sI18054
S'Geometry'
p289
sI40609
S'Stochastic'
p290
sI35099
S'Random_variable'
p291
sI30375
S'Parsing'
p292
sI40616
S'Stochastic_process'
p293
sI3753
S'Asymptotic_analysis'
p294
sI7867
S'Computer_security'
p295
sI3772
S'Atomicity_(database_systems)'
p296
sI7114
S'Complexity_class'
p297
sI30403
S'Partial_differential_equation'
p298
sI7879
S'Computer_simulation'
p299
sI7881
S'Computer_software'
p300
sI38636
S'Server_(computing)'
p301
sI7920
S'Computer_vision'
p302
sI24314
S'Linear_algebra'
p303
sI32523
S'Probability'
p304
sI13614
S'Dynamic_programming'
p305
sI46881
S'Virtual_memory'
p306
sI24359
S'Linear_programming'
p307
sI46892
S'Virtual_reality'
p308
sI18224
S'GPU'
p309
sI3892
S'Authentication'
p310
sI32567
S'Probability_theory'
p311
sI18235
S'Gradient_descent'
p312
sI40768
S'String_(computer_science)'
p313
sI8004
S'Computing'
p314
sI24389
S'Linear_system'
p315
sI38728
S'Shading'
p316
sI1881
S'Amortized_analysis'
p317
sI30562
S'Pattern_matching'
p318
sI30568
S'Pattern_recognition'
p319
sI3945
S'Automata_theory'
p320
sI32618
S'Problem_solving'
p321
sI24434
S'Linked_list'
p322
sI16245
S'Fast_Fourier_transform'
p323
sI10217
S'Cryptography'
p324
sI3967
S'Automatic_programming'
p325
sI24454
S'Lisp_(programming_language)'
p326
sI44936
S'Traffic_analysis'
p327
sI34699
S'Public-key_cryptography'
p328
sI28560
S'Neural_network'
p329
sI16278
S'Feature_extraction'
p330
sI18332
S'Graph_coloring'
p331
sI4002
S'Autonomous_robot'
p332
sI18357
S'Graph_theory'
p333
sI30647
S'Peer-to-peer'
p334
sI40893
S'Structured_programming'
p335
sI14270
S'Embedded_system'
p336
sI26561
S'Microprocessor'
p337
sI34757
S'Pushdown_automata'
p338
sI10185
S'Cryptanalysis'
p339
sI39587
S'Software_testing'
p340
sI38870
S'Signal_processing'
p341
sI18391
S'Graphical_user_interface'
p342
sI18393
S'Graphics'
p343
sI22863
S'Kernel_(computing)'
p344
sI34793
S'Python_(programming_language)'
p345
sI47095
S'Visualization_(computer_graphics)'
p346
s.